target datalayout = "e-m:e-p270:32:32-p271:32:32-p272:64:64-i64:64-i128:128-f80:128-n8:16:32:64-S128"
target triple = "x86_64-pc-linux-gnu"

%struct.jit_State = type { %struct.GCtrace, ptr, ptr, ptr, ptr, ptr, ptr, i32, i32, i32, i8, i8, %struct.IRType1, i8, %struct.FoldState, ptr, i32, i32, i32, i32, i32, i32, i32, [1 x i32], [5 x %union.TValue], [3 x %union.TValue], ptr, i32, i32, i32, i32, ptr, ptr, i32, i32, i8, ptr, i32, i32, i16, [101 x i16], [258 x i32], [15 x i32], [16 x ptr], [64 x %struct.HotPenalty], i32, [16 x %struct.BPropEntry], i32, %struct.ScEvEntry, ptr, i32, i32, i32, ptr, i32, i32, ptr, ptr, ptr, i64, i64, %union.TValue, ptr, i32, i32 }
%struct.GCtrace = type { %struct.GCRef, i8, i8, i16, i32, i32, %struct.GCRef, ptr, i32, i32, ptr, ptr, %struct.GCRef, %struct.MRef, i32, i32, ptr, i32, i16, i16, i16, i16, i16, i16, i16, i8, i8, i8, i8 }
%struct.GCRef = type { i64 }
%struct.MRef = type { i64 }
%struct.IRType1 = type { i8 }
%struct.FoldState = type { %union.IRIns, [2 x %union.IRIns], [2 x %union.IRIns] }
%union.IRIns = type { %struct.GCRef }
%struct.HotPenalty = type { %struct.MRef, i16, i16 }
%struct.BPropEntry = type { i16, i16, i32 }
%struct.ScEvEntry = type { %struct.MRef, i16, i16, i16, i16, %struct.IRType1, i8 }
%union.TValue = type { i64 }
%struct.anon.0 = type { i32, %struct.IRType1, i8, i8, i8 }
%struct.anon = type { i16, i16, i16, i16 }

; Function Attrs: nounwind uwtable
define internal i32 @fold_simplify_conv_i64_num(ptr noundef %0) #0 {
  %2 = alloca i32, align 4
  %3 = alloca ptr, align 8
  store ptr %0, ptr %3, align 8, !tbaa !4
  %4 = load ptr, ptr %3, align 8, !tbaa !4
  %5 = getelementptr inbounds nuw %struct.jit_State, ptr %4, i32 0, i32 14
  %6 = getelementptr inbounds nuw %struct.FoldState, ptr %5, i32 0, i32 1
  %7 = getelementptr inbounds [2 x %union.IRIns], ptr %6, i64 0, i64 0
  %8 = getelementptr inbounds nuw %struct.anon.0, ptr %7, i32 0, i32 1
  %9 = getelementptr inbounds nuw %struct.IRType1, ptr %8, i32 0, i32 0
  %10 = load i8, ptr %9, align 4, !tbaa !29
  %11 = zext i8 %10 to i32
  %12 = and i32 %11, 64
  %13 = icmp ne i32 %12, 0
  br i1 %13, label %14, label %15

14:                                               ; preds = %1
  store i32 0, ptr %2, align 4
  br label %60

15:                                               ; preds = %1
  %16 = load ptr, ptr %3, align 8, !tbaa !4
  %17 = getelementptr inbounds nuw %struct.jit_State, ptr %16, i32 0, i32 14
  %18 = getelementptr inbounds nuw %struct.FoldState, ptr %17, i32 0, i32 1
  %19 = getelementptr inbounds [2 x %union.IRIns], ptr %18, i64 0, i64 0
  %20 = getelementptr inbounds nuw %struct.anon, ptr %19, i32 0, i32 1
  %21 = load i16, ptr %20, align 2, !tbaa !29
  %22 = zext i16 %21 to i32
  %23 = and i32 %22, 31
  %24 = icmp eq i32 %23, 19
  br i1 %24, label %25, label %40

25:                                               ; preds = %15
  %26 = load ptr, ptr %3, align 8, !tbaa !4
  %27 = getelementptr inbounds nuw %struct.jit_State, ptr %26, i32 0, i32 14
  %28 = getelementptr inbounds nuw %struct.FoldState, ptr %27, i32 0, i32 1
  %29 = getelementptr inbounds [2 x %union.IRIns], ptr %28, i64 0, i64 0
  %30 = getelementptr inbounds nuw %struct.anon, ptr %29, i32 0, i32 0
  %31 = load i16, ptr %30, align 8, !tbaa !29
  %32 = load ptr, ptr %3, align 8, !tbaa !4
  %33 = getelementptr inbounds nuw %struct.jit_State, ptr %32, i32 0, i32 14
  %34 = getelementptr inbounds nuw %struct.FoldState, ptr %33, i32 0, i32 0
  %35 = getelementptr inbounds nuw %struct.anon, ptr %34, i32 0, i32 0
  store i16 %31, ptr %35, align 8, !tbaa !29
  %36 = load ptr, ptr %3, align 8, !tbaa !4
  %37 = getelementptr inbounds nuw %struct.jit_State, ptr %36, i32 0, i32 14
  %38 = getelementptr inbounds nuw %struct.FoldState, ptr %37, i32 0, i32 0
  %39 = getelementptr inbounds nuw %struct.anon, ptr %38, i32 0, i32 1
  store i16 2739, ptr %39, align 2, !tbaa !29
  store i32 1, ptr %2, align 4
  br label %60

40:                                               ; preds = %15
  %41 = load ptr, ptr %3, align 8, !tbaa !4
  %42 = getelementptr inbounds nuw %struct.jit_State, ptr %41, i32 0, i32 14
  %43 = getelementptr inbounds nuw %struct.FoldState, ptr %42, i32 0, i32 1
  %44 = getelementptr inbounds [2 x %union.IRIns], ptr %43, i64 0, i64 0
  %45 = getelementptr inbounds nuw %struct.anon, ptr %44, i32 0, i32 1
  %46 = load i16, ptr %45, align 2, !tbaa !29
  %47 = zext i16 %46 to i32
  %48 = and i32 %47, 31
  %49 = icmp eq i32 %48, 20
  br i1 %49, label %50, label %58

50:                                               ; preds = %40
  %51 = load ptr, ptr %3, align 8, !tbaa !4
  %52 = getelementptr inbounds nuw %struct.jit_State, ptr %51, i32 0, i32 14
  %53 = getelementptr inbounds nuw %struct.FoldState, ptr %52, i32 0, i32 1
  %54 = getelementptr inbounds [2 x %union.IRIns], ptr %53, i64 0, i64 0
  %55 = getelementptr inbounds nuw %struct.anon, ptr %54, i32 0, i32 0
  %56 = load i16, ptr %55, align 8, !tbaa !29
  %57 = zext i16 %56 to i32
  store i32 %57, ptr %2, align 4
  br label %60

58:                                               ; preds = %40
  br label %59

59:                                               ; preds = %58
  store i32 0, ptr %2, align 4
  br label %60

60:                                               ; preds = %59, %50, %25, %14
  %61 = load i32, ptr %2, align 4
  ret i32 %61
}