; Function Attrs: mustprogress nofree norecurse nosync nounwind willreturn memory(argmem: readwrite) uwtable
define internal range(i32 0, 65536) i32 @fold_simplify_conv_i64_num(ptr noundef captures(none) %0) #5 {
  %2 = getelementptr inbounds nuw i8, ptr %0, i64 184
  %3 = getelementptr inbounds nuw i8, ptr %0, i64 192
  %4 = getelementptr inbounds nuw i8, ptr %0, i64 196
  %5 = load i8, ptr %4, align 4, !tbaa !28
  %6 = and i8 %5, 64
  %.not = icmp eq i8 %6, 0
  br i1 %.not, label %7, label %17

7:                                                ; preds = %1
  %8 = getelementptr inbounds nuw i8, ptr %0, i64 194
  %9 = load i16, ptr %8, align 2, !tbaa !28
  %10 = and i16 %9, 31
  switch i16 %10, label %17 [
    i16 19, label %11
    i16 20, label %14
  ]

11:                                               ; preds = %7
  %12 = load i16, ptr %3, align 8, !tbaa !28
  store i16 %12, ptr %2, align 8, !tbaa !28
  %13 = getelementptr inbounds nuw i8, ptr %0, i64 186
  store i16 2739, ptr %13, align 2, !tbaa !28
  br label %17

14:                                               ; preds = %7
  %15 = load i16, ptr %3, align 8, !tbaa !28
  %16 = zext i16 %15 to i32
  br label %17

17:                                               ; preds = %7, %1, %14, %11
  %.0 = phi i32 [ 1, %11 ], [ %16, %14 ], [ 0, %1 ], [ 0, %7 ]
  ret i32 %.0
}